; Function Attrs: nounwind uwtable
define internal void @_loadtp(i32 %0, i16 signext %1, ptr noundef initializes((504, 508)) %2) #0 {
  %4 = getelementptr inbounds nuw i8, ptr %2, i64 1104
  %5 = load ptr, ptr %4, align 8, !tbaa !48
  %6 = tail call i32 @pmix_hwloc_load_topology(ptr noundef %5) #12
  %7 = getelementptr inbounds nuw i8, ptr %2, i64 504
  store i32 %6, ptr %7, align 8, !tbaa !65
  %8 = getelementptr inbounds nuw i8, ptr %2, i64 400
  %9 = tail call i32 @pthread_mutex_lock(ptr noundef nonnull %8) #12
  %10 = getelementptr inbounds nuw i8, ptr %2, i64 488
  store volatile i8 0, ptr %10, align 8, !tbaa !63
  fence release
  %11 = getelementptr inbounds nuw i8, ptr %2, i64 440
  %12 = tail call i32 @pthread_cond_broadcast(ptr noundef nonnull %11) #12
  %13 = tail call i32 @pthread_mutex_unlock(ptr noundef nonnull %8) #12
  ret void
}